target datalayout = "e-m:e-p270:32:32-p271:32:32-p272:64:64-i64:64-i128:128-f80:128-n8:16:32:64-S128"
target triple = "x86_64-pc-linux-gnu"

%struct.GEQContext = type { ptr, [4 x [32 x ptr]], [7 x ptr], ptr, ptr, ptr, ptr, [8 x double], i32, i32, i32, i32, i32, i32, [4 x ptr], [4 x i32] }

; Function Attrs: inlinehint nounwind uwtable
define internal double @getpix_integrate_internal(ptr noundef %0, i32 noundef %1, i32 noundef %2, i32 noundef %3, i32 noundef %4, i32 noundef %5) #3 {
  %7 = alloca double, align 8
  %8 = alloca ptr, align 8
  %9 = alloca i32, align 4
  %10 = alloca i32, align 4
  %11 = alloca i32, align 4
  %12 = alloca i32, align 4
  %13 = alloca i32, align 4
  %14 = alloca double, align 8
  %15 = alloca double, align 8
  store ptr %0, ptr %8, align 8, !tbaa !22
  store i32 %1, ptr %9, align 4, !tbaa !24
  store i32 %2, ptr %10, align 4, !tbaa !24
  store i32 %3, ptr %11, align 4, !tbaa !24
  store i32 %4, ptr %12, align 4, !tbaa !24
  store i32 %5, ptr %13, align 4, !tbaa !24
  %16 = load i32, ptr %9, align 4, !tbaa !24
  %17 = load i32, ptr %12, align 4, !tbaa !24
  %18 = sub nsw i32 %17, 1
  %19 = icmp sgt i32 %16, %18
  br i1 %19, label %20, label %43

20:                                               ; preds = %6
  call void @llvm.lifetime.start.p0(i64 8, ptr %14) #11
  %21 = load ptr, ptr %8, align 8, !tbaa !22
  %22 = load i32, ptr %12, align 4, !tbaa !24
  %23 = sub nsw i32 %22, 1
  %24 = load i32, ptr %10, align 4, !tbaa !24
  %25 = load i32, ptr %11, align 4, !tbaa !24
  %26 = load i32, ptr %12, align 4, !tbaa !24
  %27 = load i32, ptr %13, align 4, !tbaa !24
  %28 = call nsz double @getpix_integrate_internal(ptr noundef %21, i32 noundef %23, i32 noundef %24, i32 noundef %25, i32 noundef %26, i32 noundef %27)
  store double %28, ptr %14, align 8, !tbaa !62
  %29 = load double, ptr %14, align 8, !tbaa !62
  %30 = load ptr, ptr %8, align 8, !tbaa !22
  %31 = load i32, ptr %12, align 4, !tbaa !24
  %32 = sub nsw i32 %31, 1
  %33 = mul nsw i32 2, %32
  %34 = load i32, ptr %9, align 4, !tbaa !24
  %35 = sub nsw i32 %33, %34
  %36 = load i32, ptr %10, align 4, !tbaa !24
  %37 = load i32, ptr %11, align 4, !tbaa !24
  %38 = load i32, ptr %12, align 4, !tbaa !24
  %39 = load i32, ptr %13, align 4, !tbaa !24
  %40 = call nsz double @getpix_integrate_internal(ptr noundef %30, i32 noundef %35, i32 noundef %36, i32 noundef %37, i32 noundef %38, i32 noundef %39)
  %41 = fneg nsz double %40
  %42 = call nsz double @llvm.fmuladd.f64(double 2.000000e+00, double %29, double %41)
  store double %42, ptr %7, align 8
  call void @llvm.lifetime.end.p0(i64 8, ptr %14) #11
  br label %125

43:                                               ; preds = %6
  %44 = load i32, ptr %10, align 4, !tbaa !24
  %45 = load i32, ptr %13, align 4, !tbaa !24
  %46 = sub nsw i32 %45, 1
  %47 = icmp sgt i32 %44, %46
  br i1 %47, label %48, label %71

48:                                               ; preds = %43
  call void @llvm.lifetime.start.p0(i64 8, ptr %15) #11
  %49 = load ptr, ptr %8, align 8, !tbaa !22
  %50 = load i32, ptr %9, align 4, !tbaa !24
  %51 = load i32, ptr %13, align 4, !tbaa !24
  %52 = sub nsw i32 %51, 1
  %53 = load i32, ptr %11, align 4, !tbaa !24
  %54 = load i32, ptr %12, align 4, !tbaa !24
  %55 = load i32, ptr %13, align 4, !tbaa !24
  %56 = call nsz double @getpix_integrate_internal(ptr noundef %49, i32 noundef %50, i32 noundef %52, i32 noundef %53, i32 noundef %54, i32 noundef %55)
  store double %56, ptr %15, align 8, !tbaa !62
  %57 = load double, ptr %15, align 8, !tbaa !62
  %58 = load ptr, ptr %8, align 8, !tbaa !22
  %59 = load i32, ptr %9, align 4, !tbaa !24
  %60 = load i32, ptr %13, align 4, !tbaa !24
  %61 = sub nsw i32 %60, 1
  %62 = mul nsw i32 2, %61
  %63 = load i32, ptr %10, align 4, !tbaa !24
  %64 = sub nsw i32 %62, %63
  %65 = load i32, ptr %11, align 4, !tbaa !24
  %66 = load i32, ptr %12, align 4, !tbaa !24
  %67 = load i32, ptr %13, align 4, !tbaa !24
  %68 = call nsz double @getpix_integrate_internal(ptr noundef %58, i32 noundef %59, i32 noundef %64, i32 noundef %65, i32 noundef %66, i32 noundef %67)
  %69 = fneg nsz double %68
  %70 = call nsz double @llvm.fmuladd.f64(double 2.000000e+00, double %57, double %69)
  store double %70, ptr %7, align 8
  call void @llvm.lifetime.end.p0(i64 8, ptr %15) #11
  br label %125

71:                                               ; preds = %43
  %72 = load i32, ptr %9, align 4, !tbaa !24
  %73 = icmp slt i32 %72, 0
  br i1 %73, label %74, label %89

74:                                               ; preds = %71
  %75 = load i32, ptr %9, align 4, !tbaa !24
  %76 = icmp eq i32 %75, -1
  br i1 %76, label %77, label %78

77:                                               ; preds = %74
  store double 0.000000e+00, ptr %7, align 8
  br label %125

78:                                               ; preds = %74
  %79 = load ptr, ptr %8, align 8, !tbaa !22
  %80 = load i32, ptr %9, align 4, !tbaa !24
  %81 = sub nsw i32 0, %80
  %82 = sub nsw i32 %81, 2
  %83 = load i32, ptr %10, align 4, !tbaa !24
  %84 = load i32, ptr %11, align 4, !tbaa !24
  %85 = load i32, ptr %12, align 4, !tbaa !24
  %86 = load i32, ptr %13, align 4, !tbaa !24
  %87 = call nsz double @getpix_integrate_internal(ptr noundef %79, i32 noundef %82, i32 noundef %83, i32 noundef %84, i32 noundef %85, i32 noundef %86)
  %88 = fneg nsz double %87
  store double %88, ptr %7, align 8
  br label %125

89:                                               ; preds = %71
  %90 = load i32, ptr %10, align 4, !tbaa !24
  %91 = icmp slt i32 %90, 0
  br i1 %91, label %92, label %107

92:                                               ; preds = %89
  %93 = load i32, ptr %10, align 4, !tbaa !24
  %94 = icmp eq i32 %93, -1
  br i1 %94, label %95, label %96

95:                                               ; preds = %92
  store double 0.000000e+00, ptr %7, align 8
  br label %125

96:                                               ; preds = %92
  %97 = load ptr, ptr %8, align 8, !tbaa !22
  %98 = load i32, ptr %9, align 4, !tbaa !24
  %99 = load i32, ptr %10, align 4, !tbaa !24
  %100 = sub nsw i32 0, %99
  %101 = sub nsw i32 %100, 2
  %102 = load i32, ptr %11, align 4, !tbaa !24
  %103 = load i32, ptr %12, align 4, !tbaa !24
  %104 = load i32, ptr %13, align 4, !tbaa !24
  %105 = call nsz double @getpix_integrate_internal(ptr noundef %97, i32 noundef %98, i32 noundef %101, i32 noundef %102, i32 noundef %103, i32 noundef %104)
  %106 = fneg nsz double %105
  store double %106, ptr %7, align 8
  br label %125

107:                                              ; preds = %89
  br label %108

108:                                              ; preds = %107
  br label %109

109:                                              ; preds = %108
  br label %110

110:                                              ; preds = %109
  %111 = load ptr, ptr %8, align 8, !tbaa !22
  %112 = getelementptr inbounds nuw %struct.GEQContext, ptr %111, i32 0, i32 14
  %113 = load i32, ptr %11, align 4, !tbaa !24
  %114 = sext i32 %113 to i64
  %115 = getelementptr inbounds [4 x ptr], ptr %112, i64 0, i64 %114
  %116 = load ptr, ptr %115, align 8, !tbaa !94
  %117 = load i32, ptr %9, align 4, !tbaa !24
  %118 = load i32, ptr %10, align 4, !tbaa !24
  %119 = load i32, ptr %12, align 4, !tbaa !24
  %120 = mul nsw i32 %118, %119
  %121 = add nsw i32 %117, %120
  %122 = sext i32 %121 to i64
  %123 = getelementptr inbounds double, ptr %116, i64 %122
  %124 = load double, ptr %123, align 8, !tbaa !62
  store double %124, ptr %7, align 8
  br label %125

125:                                              ; preds = %110, %96, %95, %78, %77, %48, %20
  %126 = load double, ptr %7, align 8
  ret double %126
}