; Function Attrs: inlinehint nofree nosync nounwind memory(read, inaccessiblemem: none) uwtable
define internal fastcc double @getpix_integrate_internal(ptr noundef %0, i32 noundef %1, i32 noundef %2, i32 noundef range(i32 0, 4) %3, i32 noundef %4, i32 noundef %5) unnamed_addr #11 {
  %.not = icmp slt i32 %1, %4
  br i1 %.not, label %15, label %7

common.ret59:                                     ; preds = %34, %26, %40, %36, %28, %16, %7
  %common.ret59.op = phi double [ %14, %7 ], [ %23, %16 ], [ %31, %28 ], [ %39, %36 ], [ %49, %40 ], [ 0.000000e+00, %26 ], [ 0.000000e+00, %34 ]
  ret double %common.ret59.op

7:                                                ; preds = %6
  %8 = add nsw i32 %4, -1
  %9 = tail call nsz fastcc double @getpix_integrate_internal(ptr noundef %0, i32 noundef %8, i32 noundef %2, i32 noundef %3, i32 noundef %4, i32 noundef %5)
  %10 = shl nsw i32 %8, 1
  %11 = sub nsw i32 %10, %1
  %12 = tail call nsz fastcc double @getpix_integrate_internal(ptr noundef %0, i32 noundef %11, i32 noundef %2, i32 noundef %3, i32 noundef %4, i32 noundef %5)
  %13 = fneg nsz double %12
  %14 = tail call nsz double @llvm.fmuladd.f64(double %9, double 2.000000e+00, double %13)
  br label %common.ret59

15:                                               ; preds = %6
  %.not58 = icmp slt i32 %2, %5
  br i1 %.not58, label %24, label %16

16:                                               ; preds = %15
  %17 = add nsw i32 %5, -1
  %18 = tail call nsz fastcc double @getpix_integrate_internal(ptr noundef %0, i32 noundef %1, i32 noundef %17, i32 noundef %3, i32 noundef %4, i32 noundef %5)
  %19 = shl nsw i32 %17, 1
  %20 = sub nsw i32 %19, %2
  %21 = tail call nsz fastcc double @getpix_integrate_internal(ptr noundef %0, i32 noundef %1, i32 noundef %20, i32 noundef %3, i32 noundef %4, i32 noundef %5)
  %22 = fneg nsz double %21
  %23 = tail call nsz double @llvm.fmuladd.f64(double %18, double 2.000000e+00, double %22)
  br label %common.ret59

24:                                               ; preds = %15
  %25 = icmp slt i32 %1, 0
  br i1 %25, label %26, label %32

26:                                               ; preds = %24
  %27 = icmp eq i32 %1, -1
  br i1 %27, label %common.ret59, label %28

28:                                               ; preds = %26
  %29 = sub nuw nsw i32 -2, %1
  %30 = tail call nsz fastcc double @getpix_integrate_internal(ptr noundef %0, i32 noundef %29, i32 noundef %2, i32 noundef %3, i32 noundef %4, i32 noundef %5)
  %31 = fneg nsz double %30
  br label %common.ret59

32:                                               ; preds = %24
  %33 = icmp slt i32 %2, 0
  br i1 %33, label %34, label %40

34:                                               ; preds = %32
  %35 = icmp eq i32 %2, -1
  br i1 %35, label %common.ret59, label %36

36:                                               ; preds = %34
  %37 = sub nuw nsw i32 -2, %2
  %38 = tail call nsz fastcc double @getpix_integrate_internal(ptr noundef %0, i32 noundef %1, i32 noundef %37, i32 noundef %3, i32 noundef %4, i32 noundef %5)
  %39 = fneg nsz double %38
  br label %common.ret59

40:                                               ; preds = %32
  %41 = getelementptr inbounds nuw i8, ptr %0, i64 1208
  %42 = zext nneg i32 %3 to i64
  %43 = getelementptr inbounds nuw [4 x ptr], ptr %41, i64 0, i64 %42
  %44 = load ptr, ptr %43, align 8, !tbaa !74
  %45 = mul nsw i32 %4, %2
  %46 = add nsw i32 %45, %1
  %47 = sext i32 %46 to i64
  %48 = getelementptr inbounds double, ptr %44, i64 %47
  %49 = load double, ptr %48, align 8, !tbaa !53
  br label %common.ret59
}